target datalayout = "e-m:e-p270:32:32-p271:32:32-p272:64:64-i64:64-i128:128-f80:128-n8:16:32:64-S128"
target triple = "x86_64-pc-linux-gnu"

%struct.strbuf = type { i64, i64, ptr }
%struct.__va_list_tag = type { i32, i32, ptr, ptr }

@.str.61 = private unnamed_addr constant [7 x i8] c"printf\00", align 1
@__const.fn_printf_va_fl.buf_payload = private unnamed_addr constant %struct.strbuf { i64 0, i64 0, ptr @strbuf_slopbuf }, align 8

; Function Attrs: nounwind uwtable
define internal void @maybe_append_string_va(ptr noundef %0, ptr noundef %1, ptr noundef %2) #0 {
  %4 = alloca ptr, align 8
  %5 = alloca ptr, align 8
  %6 = alloca ptr, align 8
  %7 = alloca [1 x %struct.__va_list_tag], align 16
  store ptr %0, ptr %4, align 8, !tbaa !81
  store ptr %1, ptr %5, align 8, !tbaa !8
  store ptr %2, ptr %6, align 8, !tbaa !16
  %8 = load ptr, ptr %5, align 8, !tbaa !8
  %9 = icmp ne ptr %8, null
  br i1 %9, label %10, label %22

10:                                               ; preds = %3
  %11 = load ptr, ptr %5, align 8, !tbaa !8
  %12 = load i8, ptr %11, align 1, !tbaa !11
  %13 = sext i8 %12 to i32
  %14 = icmp ne i32 %13, 0
  br i1 %14, label %15, label %22

15:                                               ; preds = %10
  call void @llvm.lifetime.start.p0(i64 24, ptr %7) #9
  %16 = getelementptr inbounds [1 x %struct.__va_list_tag], ptr %7, i64 0, i64 0
  %17 = load ptr, ptr %6, align 8, !tbaa !16
  call void @llvm.va_copy.p0(ptr %16, ptr %17)
  %18 = load ptr, ptr %4, align 8, !tbaa !81
  %19 = load ptr, ptr %5, align 8, !tbaa !8
  %20 = getelementptr inbounds [1 x %struct.__va_list_tag], ptr %7, i64 0, i64 0
  call void @strbuf_vaddf(ptr noundef %18, ptr noundef %19, ptr noundef %20)
  %21 = getelementptr inbounds [1 x %struct.__va_list_tag], ptr %7, i64 0, i64 0
  call void @llvm.va_end.p0(ptr %21)
  call void @llvm.lifetime.end.p0(i64 24, ptr %7) #9
  br label %22

22:                                               ; preds = %15, %10, %3
  ret void
}

; Function Attrs: nounwind uwtable
define internal void @fn_printf_va_fl(ptr noundef %0, i32 noundef %1, i64 noundef %2, ptr noundef %3, ptr noundef %4) #0 {
  %6 = alloca ptr, align 8
  %7 = alloca i32, align 4
  %8 = alloca i64, align 8
  %9 = alloca ptr, align 8
  %10 = alloca ptr, align 8
  %11 = alloca ptr, align 8
  %12 = alloca %struct.strbuf, align 8
  store ptr %0, ptr %6, align 8, !tbaa !8
  store i32 %1, ptr %7, align 4, !tbaa !4
  store i64 %2, ptr %8, align 8, !tbaa !12
  store ptr %3, ptr %9, align 8, !tbaa !8
  store ptr %4, ptr %10, align 8, !tbaa !16
  call void @llvm.lifetime.start.p0(i64 8, ptr %11) #9
  store ptr @.str.61, ptr %11, align 8, !tbaa !8
  call void @llvm.lifetime.start.p0(i64 24, ptr %12) #9
  call void @llvm.memcpy.p0.p0.i64(ptr align 8 %12, ptr align 8 @__const.fn_printf_va_fl.buf_payload, i64 24, i1 false)
  %13 = load ptr, ptr %9, align 8, !tbaa !8
  %14 = load ptr, ptr %10, align 8, !tbaa !16
  call void @maybe_append_string_va(ptr noundef %12, ptr noundef %13, ptr noundef %14)
  %15 = load ptr, ptr %6, align 8, !tbaa !8
  %16 = load i32, ptr %7, align 4, !tbaa !4
  %17 = load ptr, ptr %11, align 8, !tbaa !8
  call void @perf_io_write_fl(ptr noundef %15, i32 noundef %16, ptr noundef %17, ptr noundef null, ptr noundef %8, ptr noundef null, ptr noundef null, ptr noundef %12)
  call void @strbuf_release(ptr noundef %12)
  call void @llvm.lifetime.end.p0(i64 24, ptr %12) #9
  call void @llvm.lifetime.end.p0(i64 8, ptr %11) #9
  ret void
}