; Function Attrs: nounwind uwtable
define internal void @fn_printf_va_fl(ptr noundef %0, i32 noundef %1, i64 noundef %2, ptr noundef %3, ptr noundef %4) #0 {
  %6 = alloca [1 x %struct.__va_list_tag], align 16
  %7 = alloca i64, align 8
  %8 = alloca %struct.strbuf, align 8
  store i64 %2, ptr %7, align 8, !tbaa !9
  call void @llvm.lifetime.start.p0(i64 24, ptr nonnull %8) #7
  call void @llvm.memcpy.p0.p0.i64(ptr noundef nonnull align 8 dereferenceable(24) %8, ptr noundef nonnull align 8 dereferenceable(24) @__const.fn_counter.buf_payload, i64 24, i1 false)
  %.not.i = icmp eq ptr %3, null
  br i1 %.not.i, label %maybe_append_string_va.exit, label %9

9:                                                ; preds = %5
  %10 = load i8, ptr %3, align 1, !tbaa !4
  %.not5.i = icmp eq i8 %10, 0
  br i1 %.not5.i, label %maybe_append_string_va.exit, label %11

11:                                               ; preds = %9
  call void @llvm.lifetime.start.p0(i64 24, ptr nonnull %6) #7
  call void @llvm.va_copy.p0(ptr nonnull %6, ptr %4)
  call void @strbuf_vaddf(ptr noundef nonnull %8, ptr noundef nonnull %3, ptr noundef nonnull %6) #7
  call void @llvm.va_end.p0(ptr nonnull %6)
  call void @llvm.lifetime.end.p0(i64 24, ptr nonnull %6) #7
  br label %maybe_append_string_va.exit

maybe_append_string_va.exit:                      ; preds = %5, %9, %11
  call fastcc void @perf_io_write_fl(ptr noundef %0, i32 noundef %1, ptr noundef nonnull @.str.61, ptr noundef null, ptr noundef nonnull %7, ptr noundef null, ptr noundef null, ptr noundef %8)
  call void @strbuf_release(ptr noundef nonnull %8) #7
  call void @llvm.lifetime.end.p0(i64 24, ptr nonnull %8) #7
  ret void
}